target datalayout = "e-m:e-p270:32:32-p271:32:32-p272:64:64-i64:64-i128:128-f80:128-n8:16:32:64-S128"
target triple = "x86_64-pc-linux-gnu"

%struct._object = type { %union.anon, ptr }
%union.anon = type { i64 }
%struct.instruction_sequence = type { %struct._object, ptr, i32, i32, i32, ptr, i32, ptr }

; Function Attrs: nounwind uwtable
define hidden i32 @_PyInstructionSequence_UseLabel(ptr noundef %0, i32 noundef %1) #0 {
  %3 = alloca i32, align 4
  %4 = alloca ptr, align 8
  %5 = alloca i32, align 4
  %6 = alloca i32, align 4
  %7 = alloca i32, align 4
  %8 = alloca i32, align 4
  store ptr %0, ptr %4, align 8, !tbaa !4
  store i32 %1, ptr %5, align 4, !tbaa !18
  call void @llvm.lifetime.start.p0(i64 4, ptr %6) #6
  %9 = load ptr, ptr %4, align 8, !tbaa !4
  %10 = getelementptr inbounds nuw %struct.instruction_sequence, ptr %9, i32 0, i32 6
  %11 = load i32, ptr %10, align 8, !tbaa !19
  store i32 %11, ptr %6, align 4, !tbaa !18
  %12 = load i32, ptr %5, align 4, !tbaa !18
  %13 = load ptr, ptr %4, align 8, !tbaa !4
  %14 = getelementptr inbounds nuw %struct.instruction_sequence, ptr %13, i32 0, i32 5
  %15 = load ptr, ptr %4, align 8, !tbaa !4
  %16 = getelementptr inbounds nuw %struct.instruction_sequence, ptr %15, i32 0, i32 6
  %17 = call i32 @_PyCompile_EnsureArrayLargeEnough(i32 noundef %12, ptr noundef %14, ptr noundef %16, i32 noundef 10, i64 noundef 4)
  %18 = icmp eq i32 %17, -1
  br i1 %18, label %19, label %20

19:                                               ; preds = %2
  store i32 -1, ptr %3, align 4
  store i32 1, ptr %7, align 4
  br label %49

20:                                               ; preds = %2
  call void @llvm.lifetime.start.p0(i64 4, ptr %8) #6
  %21 = load i32, ptr %6, align 4, !tbaa !18
  store i32 %21, ptr %8, align 4, !tbaa !18
  br label %22

22:                                               ; preds = %36, %20
  %23 = load i32, ptr %8, align 4, !tbaa !18
  %24 = load ptr, ptr %4, align 8, !tbaa !4
  %25 = getelementptr inbounds nuw %struct.instruction_sequence, ptr %24, i32 0, i32 6
  %26 = load i32, ptr %25, align 8, !tbaa !19
  %27 = icmp slt i32 %23, %26
  br i1 %27, label %29, label %28

28:                                               ; preds = %22
  store i32 2, ptr %7, align 4
  call void @llvm.lifetime.end.p0(i64 4, ptr %8) #6
  br label %39

29:                                               ; preds = %22
  %30 = load ptr, ptr %4, align 8, !tbaa !4
  %31 = getelementptr inbounds nuw %struct.instruction_sequence, ptr %30, i32 0, i32 5
  %32 = load ptr, ptr %31, align 8, !tbaa !20
  %33 = load i32, ptr %8, align 4, !tbaa !18
  %34 = sext i32 %33 to i64
  %35 = getelementptr i32, ptr %32, i64 %34
  store i32 -111, ptr %35, align 4, !tbaa !18
  br label %36

36:                                               ; preds = %29
  %37 = load i32, ptr %8, align 4, !tbaa !18
  %38 = add i32 %37, 1
  store i32 %38, ptr %8, align 4, !tbaa !18
  br label %22, !llvm.loop !21

39:                                               ; preds = %28
  %40 = load ptr, ptr %4, align 8, !tbaa !4
  %41 = getelementptr inbounds nuw %struct.instruction_sequence, ptr %40, i32 0, i32 3
  %42 = load i32, ptr %41, align 4, !tbaa !23
  %43 = load ptr, ptr %4, align 8, !tbaa !4
  %44 = getelementptr inbounds nuw %struct.instruction_sequence, ptr %43, i32 0, i32 5
  %45 = load ptr, ptr %44, align 8, !tbaa !20
  %46 = load i32, ptr %5, align 4, !tbaa !18
  %47 = sext i32 %46 to i64
  %48 = getelementptr i32, ptr %45, i64 %47
  store i32 %42, ptr %48, align 4, !tbaa !18
  store i32 0, ptr %3, align 4
  store i32 1, ptr %7, align 4
  br label %49

49:                                               ; preds = %39, %19
  call void @llvm.lifetime.end.p0(i64 4, ptr %6) #6
  %50 = load i32, ptr %3, align 4
  ret i32 %50
}