; Function Attrs: nounwind uwtable
define hidden range(i32 -1, 1) i32 @_PyInstructionSequence_UseLabel(ptr noundef %0, i32 noundef %1) local_unnamed_addr #1 {
  %3 = getelementptr inbounds nuw i8, ptr %0, i64 48
  %4 = load i32, ptr %3, align 8, !tbaa !14
  %5 = getelementptr inbounds nuw i8, ptr %0, i64 40
  %6 = tail call i32 @_PyCompile_EnsureArrayLargeEnough(i32 noundef %1, ptr noundef nonnull %5, ptr noundef nonnull %3, i32 noundef 10, i64 noundef 4) #6
  %7 = icmp eq i32 %6, -1
  br i1 %7, label %20, label %.preheader

.preheader:                                       ; preds = %2
  %8 = load i32, ptr %3, align 8, !tbaa !14
  %9 = icmp slt i32 %4, %8
  %.pre = load ptr, ptr %5, align 8, !tbaa !15
  br i1 %9, label %.lr.ph, label %._crit_edge

.lr.ph:                                           ; preds = %.preheader
  %10 = sext i32 %4 to i64
  br label %15

._crit_edge:                                      ; preds = %15, %.preheader
  %11 = getelementptr inbounds nuw i8, ptr %0, i64 28
  %12 = load i32, ptr %11, align 4, !tbaa !16
  %13 = sext i32 %1 to i64
  %14 = getelementptr i32, ptr %.pre, i64 %13
  store i32 %12, ptr %14, align 4, !tbaa !17
  br label %20

15:                                               ; preds = %.lr.ph, %15
  %indvars.iv = phi i64 [ %10, %.lr.ph ], [ %indvars.iv.next, %15 ]
  %16 = getelementptr i32, ptr %.pre, i64 %indvars.iv
  store i32 -111, ptr %16, align 4, !tbaa !17
  %indvars.iv.next = add nsw i64 %indvars.iv, 1
  %17 = load i32, ptr %3, align 8, !tbaa !14
  %18 = sext i32 %17 to i64
  %19 = icmp slt i64 %indvars.iv.next, %18
  br i1 %19, label %15, label %._crit_edge, !llvm.loop !18

20:                                               ; preds = %2, %._crit_edge
  %.013 = phi i32 [ 0, %._crit_edge ], [ -1, %2 ]
  ret i32 %.013
}